; Function Attrs: mustprogress uwtable
define void @_ZN2cv4rgbd13OdometryFrame7releaseEv(ptr noundef nonnull align 8 dereferenceable(616) initializes((8, 12)) %0) unnamed_addr #4 align 2 {
  %2 = getelementptr inbounds nuw i8, ptr %0, i64 8
  store i32 -1, ptr %2, align 8, !tbaa !33
  %3 = getelementptr inbounds nuw i8, ptr %0, i64 16
  tail call void @_ZN2cv3Mat7releaseEv(ptr noundef nonnull align 8 dereferenceable(96) %3)
  %4 = getelementptr inbounds nuw i8, ptr %0, i64 112
  tail call void @_ZN2cv3Mat7releaseEv(ptr noundef nonnull align 8 dereferenceable(96) %4)
  %5 = getelementptr inbounds nuw i8, ptr %0, i64 208
  tail call void @_ZN2cv3Mat7releaseEv(ptr noundef nonnull align 8 dereferenceable(96) %5)
  %6 = getelementptr inbounds nuw i8, ptr %0, i64 304
  tail call void @_ZN2cv3Mat7releaseEv(ptr noundef nonnull align 8 dereferenceable(96) %6)
  tail call void @_ZN2cv4rgbd13OdometryFrame15releasePyramidsEv(ptr noundef nonnull align 8 dereferenceable(616) %0)
  ret void
}